; Function Attrs: mustprogress uwtable
define hidden void @_ZN4ncnn9BatchNormC2Ev(ptr noundef nonnull align 8 dereferenceable(648) %0) unnamed_addr #1 align 2 personality ptr @__gxx_personality_v0 {
  tail call void @_ZN4ncnn5LayerC2Ev(ptr noundef nonnull align 8 dereferenceable(208) %0)
  store ptr getelementptr inbounds nuw inrange(-16, 80) (i8, ptr @_ZTVN4ncnn9BatchNormE, i64 16), ptr %0, align 8, !tbaa !4
  %2 = getelementptr inbounds nuw i8, ptr %0, i64 216
  %3 = getelementptr inbounds nuw i8, ptr %0, i64 248
  %4 = getelementptr inbounds nuw i8, ptr %0, i64 280
  %5 = getelementptr inbounds nuw i8, ptr %0, i64 320
  %6 = getelementptr inbounds nuw i8, ptr %0, i64 352
  %7 = getelementptr inbounds nuw i8, ptr %0, i64 392
  %8 = getelementptr inbounds nuw i8, ptr %0, i64 424
  %9 = getelementptr inbounds nuw i8, ptr %0, i64 464
  %10 = getelementptr inbounds nuw i8, ptr %0, i64 496
  %11 = getelementptr inbounds nuw i8, ptr %0, i64 536
  %12 = getelementptr inbounds nuw i8, ptr %0, i64 568
  %13 = getelementptr inbounds nuw i8, ptr %0, i64 608
  %14 = getelementptr inbounds nuw i8, ptr %0, i64 640
  store i64 0, ptr %14, align 8, !tbaa !17
  %15 = getelementptr inbounds nuw i8, ptr %0, i64 8
  tail call void @llvm.memset.p0.i64(ptr noundef nonnull align 8 dereferenceable(28) %2, i8 0, i64 28, i1 false)
  tail call void @llvm.memset.p0.i64(ptr noundef nonnull align 8 dereferenceable(28) %3, i8 0, i64 28, i1 false)
  tail call void @llvm.memset.p0.i64(ptr noundef nonnull align 8 dereferenceable(36) %4, i8 0, i64 36, i1 false)
  tail call void @llvm.memset.p0.i64(ptr noundef nonnull align 8 dereferenceable(28) %5, i8 0, i64 28, i1 false)
  tail call void @llvm.memset.p0.i64(ptr noundef nonnull align 8 dereferenceable(36) %6, i8 0, i64 36, i1 false)
  tail call void @llvm.memset.p0.i64(ptr noundef nonnull align 8 dereferenceable(28) %7, i8 0, i64 28, i1 false)
  tail call void @llvm.memset.p0.i64(ptr noundef nonnull align 8 dereferenceable(36) %8, i8 0, i64 36, i1 false)
  tail call void @llvm.memset.p0.i64(ptr noundef nonnull align 8 dereferenceable(28) %9, i8 0, i64 28, i1 false)
  tail call void @llvm.memset.p0.i64(ptr noundef nonnull align 8 dereferenceable(36) %10, i8 0, i64 36, i1 false)
  tail call void @llvm.memset.p0.i64(ptr noundef nonnull align 8 dereferenceable(28) %11, i8 0, i64 28, i1 false)
  tail call void @llvm.memset.p0.i64(ptr noundef nonnull align 8 dereferenceable(36) %12, i8 0, i64 36, i1 false)
  tail call void @llvm.memset.p0.i64(ptr noundef nonnull align 8 dereferenceable(28) %13, i8 0, i64 28, i1 false)
  store i8 1, ptr %15, align 8, !tbaa !51
  %16 = getelementptr inbounds nuw i8, ptr %0, i64 9
  store i8 1, ptr %16, align 1, !tbaa !52
  ret void
}